; Function Attrs: nounwind uwtable
define internal range(i32 0, 2) i32 @dh_priv_decode(ptr noundef %0, ptr noundef %1) #0 {
  %3 = tail call ptr @ossl_dh_key_from_pkcs8(ptr noundef %1, ptr noundef null, ptr noundef null) #5
  %.not = icmp eq ptr %3, null
  br i1 %.not, label %9, label %4

4:                                                ; preds = %2
  %5 = getelementptr inbounds nuw i8, ptr %0, i64 8
  %6 = load ptr, ptr %5, align 8, !tbaa !33
  %7 = load i32, ptr %6, align 8, !tbaa !40
  %8 = tail call i32 @EVP_PKEY_assign(ptr noundef %0, i32 noundef %7, ptr noundef nonnull %3) #5
  br label %9

9:                                                ; preds = %4, %2
  %.0 = phi i32 [ 1, %4 ], [ 0, %2 ]
  ret i32 %.0
}